target datalayout = "e-m:e-p270:32:32-p271:32:32-p272:64:64-i64:64-i128:128-f80:128-n8:16:32:64-S128"
target triple = "x86_64-pc-linux-gnu"

%struct._e_guid_t = type { i32, i16, i16, [8 x i8] }
%struct._dcerpc_info = type { ptr, i32, i64, i8, i8, i8, i32, i32, i32, i32, i32, i32, i32, i32, ptr, ptr, ptr, ptr, %struct.anon }
%struct.anon = type { i8, ptr, ptr, ptr, i8 }
%struct._packet_info = type { ptr, ptr, i32, i32, %struct.nstime_t, %struct.nstime_t, %struct.nstime_t, i8, ptr, ptr, ptr, ptr, %struct._address, %struct._address, %struct._address, %struct._address, %struct._address, %struct._address, i32, ptr, i8, [3 x i8], %struct.anon.0, i32, i32, i32, i32, ptr, i8, ptr, ptr, i16, i16, i32, i32, i16, i32, i32, ptr, ptr, ptr, i8, i8, i16, i16, i16, i32, i16, i16, ptr, ptr, ptr, ptr, ptr, i32, i32 }
%struct.nstime_t = type { i64, i32 }
%struct._address = type { i32, i32, ptr, ptr }
%struct.anon.0 = type { i8, [3 x i8] }

@hf_rs_timeval = internal global i32 0, align 4
@hf_rs_uuid1 = internal global i32 0, align 4
@ett_rs_cache_data_t = internal global i32 0, align 4
@.str.66 = private unnamed_addr constant [16 x i8] c"rs_cache_data_t\00", align 1
@.str.67 = private unnamed_addr constant [95 x i8] c" siteid %08x-%04x-%04x-%02x%02x-%02x%02x%02x%02x%02x%02x person_dtm:%u group_dtm:%u org_dtm:%u\00", align 1

; Function Attrs: null_pointer_is_valid sspstrong uwtable
define internal i32 @dissect_rs_cache_data_t(ptr noundef %0, i32 noundef %1, ptr noundef %2, ptr noundef %3, ptr noundef %4, ptr noundef %5) #0 {
  %7 = alloca i32, align 4
  %8 = alloca ptr, align 8
  %9 = alloca i32, align 4
  %10 = alloca ptr, align 8
  %11 = alloca ptr, align 8
  %12 = alloca ptr, align 8
  %13 = alloca ptr, align 8
  %14 = alloca ptr, align 8
  %15 = alloca ptr, align 8
  %16 = alloca i32, align 4
  %17 = alloca i32, align 4
  %18 = alloca i32, align 4
  %19 = alloca i32, align 4
  %20 = alloca %struct._e_guid_t, align 4
  %21 = alloca i32, align 4
  store ptr %0, ptr %8, align 8
  store i32 %1, ptr %9, align 4
  store ptr %2, ptr %10, align 8
  store ptr %3, ptr %11, align 8
  store ptr %4, ptr %12, align 8
  store ptr %5, ptr %13, align 8
  call void @llvm.lifetime.start.p0(i64 8, ptr %14) #3
  store ptr null, ptr %14, align 8
  call void @llvm.lifetime.start.p0(i64 8, ptr %15) #3
  store ptr null, ptr %15, align 8
  call void @llvm.lifetime.start.p0(i64 4, ptr %16) #3
  %22 = load i32, ptr %9, align 4
  store i32 %22, ptr %16, align 4
  call void @llvm.lifetime.start.p0(i64 4, ptr %17) #3
  call void @llvm.lifetime.start.p0(i64 4, ptr %18) #3
  call void @llvm.lifetime.start.p0(i64 4, ptr %19) #3
  call void @llvm.lifetime.start.p0(i64 16, ptr %20) #3
  %23 = load ptr, ptr %12, align 8
  %24 = getelementptr inbounds nuw %struct._dcerpc_info, ptr %23, i32 0, i32 4
  %25 = load i8, ptr %24, align 1, !range !6, !noundef !7
  %26 = trunc i8 %25 to i1
  br i1 %26, label %27, label %29

27:                                               ; preds = %6
  %28 = load i32, ptr %9, align 4
  store i32 %28, ptr %7, align 4
  store i32 1, ptr %21, align 4
  br label %119

29:                                               ; preds = %6
  %30 = load ptr, ptr %11, align 8
  %31 = icmp ne ptr %30, null
  br i1 %31, label %32, label %38

32:                                               ; preds = %29
  %33 = load ptr, ptr %11, align 8
  %34 = load ptr, ptr %8, align 8
  %35 = load i32, ptr %9, align 4
  %36 = load i32, ptr @ett_rs_cache_data_t, align 4
  %37 = call ptr @proto_tree_add_subtree(ptr noundef %33, ptr noundef %34, i32 noundef %35, i32 noundef -1, i32 noundef %36, ptr noundef %14, ptr noundef @.str.66)
  store ptr %37, ptr %15, align 8
  br label %38

38:                                               ; preds = %32, %29
  %39 = load ptr, ptr %8, align 8
  %40 = load i32, ptr %9, align 4
  %41 = load ptr, ptr %10, align 8
  %42 = load ptr, ptr %15, align 8
  %43 = load ptr, ptr %12, align 8
  %44 = load ptr, ptr %13, align 8
  %45 = load i32, ptr @hf_rs_uuid1, align 4
  %46 = call i32 @dissect_ndr_uuid_t(ptr noundef %39, i32 noundef %40, ptr noundef %41, ptr noundef %42, ptr noundef %43, ptr noundef %44, i32 noundef %45, ptr noundef %20)
  store i32 %46, ptr %9, align 4
  %47 = load ptr, ptr %8, align 8
  %48 = load i32, ptr %9, align 4
  %49 = load ptr, ptr %10, align 8
  %50 = load ptr, ptr %15, align 8
  %51 = load ptr, ptr %13, align 8
  %52 = load i32, ptr @hf_rs_timeval, align 4
  %53 = call i32 @dissect_dcerpc_time_t(ptr noundef %47, i32 noundef %48, ptr noundef %49, ptr noundef %50, ptr noundef %51, i32 noundef %52, ptr noundef %17)
  store i32 %53, ptr %9, align 4
  %54 = load ptr, ptr %8, align 8
  %55 = load i32, ptr %9, align 4
  %56 = load ptr, ptr %10, align 8
  %57 = load ptr, ptr %15, align 8
  %58 = load ptr, ptr %13, align 8
  %59 = load i32, ptr @hf_rs_timeval, align 4
  %60 = call i32 @dissect_dcerpc_time_t(ptr noundef %54, i32 noundef %55, ptr noundef %56, ptr noundef %57, ptr noundef %58, i32 noundef %59, ptr noundef %18)
  store i32 %60, ptr %9, align 4
  %61 = load ptr, ptr %8, align 8
  %62 = load i32, ptr %9, align 4
  %63 = load ptr, ptr %10, align 8
  %64 = load ptr, ptr %15, align 8
  %65 = load ptr, ptr %13, align 8
  %66 = load i32, ptr @hf_rs_timeval, align 4
  %67 = call i32 @dissect_dcerpc_time_t(ptr noundef %61, i32 noundef %62, ptr noundef %63, ptr noundef %64, ptr noundef %65, i32 noundef %66, ptr noundef %19)
  store i32 %67, ptr %9, align 4
  %68 = load ptr, ptr %10, align 8
  %69 = getelementptr inbounds nuw %struct._packet_info, ptr %68, i32 0, i32 1
  %70 = load ptr, ptr %69, align 8
  %71 = getelementptr inbounds nuw %struct._e_guid_t, ptr %20, i32 0, i32 0
  %72 = load i32, ptr %71, align 4
  %73 = getelementptr inbounds nuw %struct._e_guid_t, ptr %20, i32 0, i32 1
  %74 = load i16, ptr %73, align 4
  %75 = zext i16 %74 to i32
  %76 = getelementptr inbounds nuw %struct._e_guid_t, ptr %20, i32 0, i32 2
  %77 = load i16, ptr %76, align 2
  %78 = zext i16 %77 to i32
  %79 = getelementptr inbounds nuw %struct._e_guid_t, ptr %20, i32 0, i32 3
  %80 = getelementptr [8 x i8], ptr %79, i64 0, i64 0
  %81 = load i8, ptr %80, align 4
  %82 = zext i8 %81 to i32
  %83 = getelementptr inbounds nuw %struct._e_guid_t, ptr %20, i32 0, i32 3
  %84 = getelementptr [8 x i8], ptr %83, i64 0, i64 1
  %85 = load i8, ptr %84, align 1
  %86 = zext i8 %85 to i32
  %87 = getelementptr inbounds nuw %struct._e_guid_t, ptr %20, i32 0, i32 3
  %88 = getelementptr [8 x i8], ptr %87, i64 0, i64 2
  %89 = load i8, ptr %88, align 2
  %90 = zext i8 %89 to i32
  %91 = getelementptr inbounds nuw %struct._e_guid_t, ptr %20, i32 0, i32 3
  %92 = getelementptr [8 x i8], ptr %91, i64 0, i64 3
  %93 = load i8, ptr %92, align 1
  %94 = zext i8 %93 to i32
  %95 = getelementptr inbounds nuw %struct._e_guid_t, ptr %20, i32 0, i32 3
  %96 = getelementptr [8 x i8], ptr %95, i64 0, i64 4
  %97 = load i8, ptr %96, align 4
  %98 = zext i8 %97 to i32
  %99 = getelementptr inbounds nuw %struct._e_guid_t, ptr %20, i32 0, i32 3
  %100 = getelementptr [8 x i8], ptr %99, i64 0, i64 5
  %101 = load i8, ptr %100, align 1
  %102 = zext i8 %101 to i32
  %103 = getelementptr inbounds nuw %struct._e_guid_t, ptr %20, i32 0, i32 3
  %104 = getelementptr [8 x i8], ptr %103, i64 0, i64 6
  %105 = load i8, ptr %104, align 2
  %106 = zext i8 %105 to i32
  %107 = getelementptr inbounds nuw %struct._e_guid_t, ptr %20, i32 0, i32 3
  %108 = getelementptr [8 x i8], ptr %107, i64 0, i64 7
  %109 = load i8, ptr %108, align 1
  %110 = zext i8 %109 to i32
  %111 = load i32, ptr %17, align 4
  %112 = load i32, ptr %18, align 4
  %113 = load i32, ptr %19, align 4
  call void (ptr, i32, ptr, ...) @col_append_fstr(ptr noundef %70, i32 noundef 25, ptr noundef @.str.67, i32 noundef %72, i32 noundef %75, i32 noundef %78, i32 noundef %82, i32 noundef %86, i32 noundef %90, i32 noundef %94, i32 noundef %98, i32 noundef %102, i32 noundef %106, i32 noundef %110, i32 noundef %111, i32 noundef %112, i32 noundef %113)
  %114 = load ptr, ptr %14, align 8
  %115 = load i32, ptr %9, align 4
  %116 = load i32, ptr %16, align 4
  %117 = sub i32 %115, %116
  call void @proto_item_set_len(ptr noundef %114, i32 noundef %117)
  %118 = load i32, ptr %9, align 4
  store i32 %118, ptr %7, align 4
  store i32 1, ptr %21, align 4
  br label %119

119:                                              ; preds = %38, %27
  call void @llvm.lifetime.end.p0(i64 16, ptr %20) #3
  call void @llvm.lifetime.end.p0(i64 4, ptr %19) #3
  call void @llvm.lifetime.end.p0(i64 4, ptr %18) #3
  call void @llvm.lifetime.end.p0(i64 4, ptr %17) #3
  call void @llvm.lifetime.end.p0(i64 4, ptr %16) #3
  call void @llvm.lifetime.end.p0(i64 8, ptr %15) #3
  call void @llvm.lifetime.end.p0(i64 8, ptr %14) #3
  %120 = load i32, ptr %7, align 4
  ret i32 %120
}