; Function Attrs: null_pointer_is_valid sspstrong uwtable
define internal i32 @dissect_rs_cache_data_t(ptr noundef %0, i32 noundef %1, ptr noundef %2, ptr noundef %3, ptr noundef %4, ptr noundef %5) #0 {
  %7 = alloca ptr, align 8
  %8 = alloca i32, align 4
  %9 = alloca i32, align 4
  %10 = alloca i32, align 4
  %11 = alloca %struct._e_guid_t, align 4
  call void @llvm.lifetime.start.p0(i64 8, ptr nonnull %7) #3
  store ptr null, ptr %7, align 8
  call void @llvm.lifetime.start.p0(i64 4, ptr nonnull %8) #3
  call void @llvm.lifetime.start.p0(i64 4, ptr nonnull %9) #3
  call void @llvm.lifetime.start.p0(i64 4, ptr nonnull %10) #3
  call void @llvm.lifetime.start.p0(i64 16, ptr nonnull %11) #3
  %12 = getelementptr inbounds nuw i8, ptr %4, i64 25
  %13 = load i8, ptr %12, align 1, !range !6, !noundef !7
  %14 = trunc nuw i8 %13 to i1
  br i1 %14, label %66, label %15

15:                                               ; preds = %6
  %.not = icmp eq ptr %3, null
  br i1 %.not, label %19, label %16

16:                                               ; preds = %15
  %17 = load i32, ptr @ett_rs_cache_data_t, align 4
  %18 = call ptr @proto_tree_add_subtree(ptr noundef nonnull %3, ptr noundef %0, i32 noundef %1, i32 noundef -1, i32 noundef %17, ptr noundef nonnull %7, ptr noundef nonnull @.str.66)
  br label %19

19:                                               ; preds = %16, %15
  %.032 = phi ptr [ %18, %16 ], [ null, %15 ]
  %20 = load i32, ptr @hf_rs_uuid1, align 4
  %21 = call i32 @dissect_ndr_uuid_t(ptr noundef %0, i32 noundef %1, ptr noundef %2, ptr noundef %.032, ptr noundef %4, ptr noundef %5, i32 noundef %20, ptr noundef nonnull %11)
  %22 = load i32, ptr @hf_rs_timeval, align 4
  %23 = call i32 @dissect_dcerpc_time_t(ptr noundef %0, i32 noundef %21, ptr noundef %2, ptr noundef %.032, ptr noundef %5, i32 noundef %22, ptr noundef nonnull %8)
  %24 = load i32, ptr @hf_rs_timeval, align 4
  %25 = call i32 @dissect_dcerpc_time_t(ptr noundef %0, i32 noundef %23, ptr noundef %2, ptr noundef %.032, ptr noundef %5, i32 noundef %24, ptr noundef nonnull %9)
  %26 = load i32, ptr @hf_rs_timeval, align 4
  %27 = call i32 @dissect_dcerpc_time_t(ptr noundef %0, i32 noundef %25, ptr noundef %2, ptr noundef %.032, ptr noundef %5, i32 noundef %26, ptr noundef nonnull %10)
  %28 = getelementptr inbounds nuw i8, ptr %2, i64 8
  %29 = load ptr, ptr %28, align 8
  %30 = load i32, ptr %11, align 4
  %31 = getelementptr inbounds nuw i8, ptr %11, i64 4
  %32 = load i16, ptr %31, align 4
  %33 = zext i16 %32 to i32
  %34 = getelementptr inbounds nuw i8, ptr %11, i64 6
  %35 = load i16, ptr %34, align 2
  %36 = zext i16 %35 to i32
  %37 = getelementptr inbounds nuw i8, ptr %11, i64 8
  %38 = load i8, ptr %37, align 4
  %39 = zext i8 %38 to i32
  %40 = getelementptr inbounds nuw i8, ptr %11, i64 9
  %41 = load i8, ptr %40, align 1
  %42 = zext i8 %41 to i32
  %43 = getelementptr inbounds nuw i8, ptr %11, i64 10
  %44 = load i8, ptr %43, align 2
  %45 = zext i8 %44 to i32
  %46 = getelementptr inbounds nuw i8, ptr %11, i64 11
  %47 = load i8, ptr %46, align 1
  %48 = zext i8 %47 to i32
  %49 = getelementptr inbounds nuw i8, ptr %11, i64 12
  %50 = load i8, ptr %49, align 4
  %51 = zext i8 %50 to i32
  %52 = getelementptr inbounds nuw i8, ptr %11, i64 13
  %53 = load i8, ptr %52, align 1
  %54 = zext i8 %53 to i32
  %55 = getelementptr inbounds nuw i8, ptr %11, i64 14
  %56 = load i8, ptr %55, align 2
  %57 = zext i8 %56 to i32
  %58 = getelementptr inbounds nuw i8, ptr %11, i64 15
  %59 = load i8, ptr %58, align 1
  %60 = zext i8 %59 to i32
  %61 = load i32, ptr %8, align 4
  %62 = load i32, ptr %9, align 4
  %63 = load i32, ptr %10, align 4
  call void (ptr, i32, ptr, ...) @col_append_fstr(ptr noundef %29, i32 noundef 25, ptr noundef nonnull @.str.67, i32 noundef %30, i32 noundef %33, i32 noundef %36, i32 noundef %39, i32 noundef %42, i32 noundef %45, i32 noundef %48, i32 noundef %51, i32 noundef %54, i32 noundef %57, i32 noundef %60, i32 noundef %61, i32 noundef %62, i32 noundef %63)
  %64 = load ptr, ptr %7, align 8
  %65 = sub i32 %27, %1
  call void @proto_item_set_len(ptr noundef %64, i32 noundef %65)
  br label %66

66:                                               ; preds = %6, %19
  %.0 = phi i32 [ %27, %19 ], [ %1, %6 ]
  call void @llvm.lifetime.end.p0(i64 16, ptr nonnull %11) #3
  call void @llvm.lifetime.end.p0(i64 4, ptr nonnull %10) #3
  call void @llvm.lifetime.end.p0(i64 4, ptr nonnull %9) #3
  call void @llvm.lifetime.end.p0(i64 4, ptr nonnull %8) #3
  call void @llvm.lifetime.end.p0(i64 8, ptr nonnull %7) #3
  ret i32 %.0
}